target datalayout = "e-m:e-p270:32:32-p271:32:32-p272:64:64-i64:64-i128:128-f80:128-n8:16:32:64-S128"
target triple = "x86_64-pc-linux-gnu"

%struct.Abc_Frame_t_ = type { ptr, ptr, ptr, ptr, ptr, ptr, ptr, ptr, ptr, ptr, i32, i32, i32, i32, i32, ptr, float, float, i32, i32, ptr, ptr, ptr, double, double, ptr, ptr, ptr, ptr, ptr, ptr, ptr, ptr, ptr, ptr, ptr, ptr, float, ptr, i32, ptr, ptr, ptr, ptr, ptr, i32, i32, i32, i32, i32, i32, ptr, ptr, ptr, ptr, ptr, ptr, i32, i32, ptr, ptr, ptr, ptr, ptr, ptr, ptr, ptr, ptr, ptr, ptr, ptr, ptr, ptr, ptr, ptr, ptr, ptr, ptr, ptr, ptr, ptr, ptr, ptr, ptr, ptr, ptr, ptr, ptr, ptr }

@Abc_UtilsGetUsersInput.Prompt = internal global [5000 x i8] zeroinitializer, align 16
@.str.2 = private unnamed_addr constant [11 x i8] c"abc %02d> \00", align 1
@Abc_UtilsGetUsersInput.line = internal global ptr null, align 8
@.str.3 = private unnamed_addr constant [11 x i8] c"***EOF***\0A\00", align 1

; Function Attrs: nounwind uwtable
define ptr @Abc_UtilsGetUsersInput(ptr noundef %0) #0 {
  %2 = alloca ptr, align 8
  store ptr %0, ptr %2, align 8, !tbaa !3
  %3 = load ptr, ptr %2, align 8, !tbaa !3
  %4 = getelementptr inbounds nuw %struct.Abc_Frame_t_, ptr %3, i32 0, i32 10
  %5 = load i32, ptr %4, align 8, !tbaa !8
  %6 = call i32 (ptr, ptr, ...) @sprintf(ptr noundef @Abc_UtilsGetUsersInput.Prompt, ptr noundef @.str.2, i32 noundef %5) #7
  %7 = load ptr, ptr @Abc_UtilsGetUsersInput.line, align 8, !tbaa !25
  %8 = icmp ne ptr %7, null
  br i1 %8, label %9, label %16

9:                                                ; preds = %1
  %10 = load ptr, ptr @Abc_UtilsGetUsersInput.line, align 8, !tbaa !25
  %11 = icmp ne ptr %10, null
  br i1 %11, label %12, label %14

12:                                               ; preds = %9
  %13 = load ptr, ptr @Abc_UtilsGetUsersInput.line, align 8, !tbaa !25
  call void @free(ptr noundef %13) #7
  store ptr null, ptr @Abc_UtilsGetUsersInput.line, align 8, !tbaa !25
  br label %15

14:                                               ; preds = %9
  br label %15

15:                                               ; preds = %14, %12
  br label %16

16:                                               ; preds = %15, %1
  %17 = call ptr @readline(ptr noundef @Abc_UtilsGetUsersInput.Prompt)
  store ptr %17, ptr @Abc_UtilsGetUsersInput.line, align 8, !tbaa !25
  %18 = load ptr, ptr @Abc_UtilsGetUsersInput.line, align 8, !tbaa !25
  %19 = icmp eq ptr %18, null
  br i1 %19, label %20, label %22

20:                                               ; preds = %16
  %21 = call i32 (ptr, ...) @printf(ptr noundef @.str.3)
  call void @exit(i32 noundef 0) #8
  unreachable

22:                                               ; preds = %16
  %23 = load ptr, ptr @Abc_UtilsGetUsersInput.line, align 8, !tbaa !25
  call void @add_history(ptr noundef %23)
  %24 = load ptr, ptr @Abc_UtilsGetUsersInput.line, align 8, !tbaa !25
  ret ptr %24
}