; Function Attrs: nounwind uwtable
define ptr @Abc_UtilsGetUsersInput(ptr noundef readonly captures(none) %0) local_unnamed_addr #2 {
  %2 = getelementptr inbounds nuw i8, ptr %0, i64 80
  %3 = load i32, ptr %2, align 8, !tbaa !3
  %4 = tail call i32 (ptr, ptr, ...) @sprintf(ptr noundef nonnull dereferenceable(1) @Abc_UtilsGetUsersInput.Prompt, ptr noundef nonnull dereferenceable(1) @.str.2, i32 noundef %3) #10
  %5 = load ptr, ptr @Abc_UtilsGetUsersInput.line, align 8, !tbaa !23
  %.not = icmp eq ptr %5, null
  br i1 %.not, label %7, label %6

6:                                                ; preds = %1
  tail call void @free(ptr noundef nonnull %5) #10
  store ptr null, ptr @Abc_UtilsGetUsersInput.line, align 8, !tbaa !23
  br label %7

7:                                                ; preds = %6, %1
  %8 = tail call ptr @readline(ptr noundef nonnull @Abc_UtilsGetUsersInput.Prompt) #10
  store ptr %8, ptr @Abc_UtilsGetUsersInput.line, align 8, !tbaa !23
  %9 = icmp eq ptr %8, null
  br i1 %9, label %10, label %11

10:                                               ; preds = %7
  %puts = tail call i32 @puts(ptr nonnull dereferenceable(1) @str)
  tail call void @exit(i32 noundef 0) #11
  unreachable

11:                                               ; preds = %7
  tail call void @add_history(ptr noundef nonnull %8) #10
  %12 = load ptr, ptr @Abc_UtilsGetUsersInput.line, align 8, !tbaa !23
  ret ptr %12
}